target datalayout = "e-m:e-p270:32:32-p271:32:32-p272:64:64-i64:64-i128:128-f80:128-n8:16:32:64-S128"
target triple = "x86_64-pc-linux-gnu"

%"class.std::__exception_ptr::exception_ptr" = type { ptr }
%"class.std::runtime_error" = type { %"class.std::exception", %"struct.std::__cow_string" }
%"class.std::exception" = type { ptr }
%"struct.std::__cow_string" = type { %union.anon }
%union.anon = type { ptr }
%"class.faiss::FaissException" = type { %"class.std::exception", %"class.std::__cxx11::basic_string" }
%"class.std::__cxx11::basic_string" = type { %"struct.std::__cxx11::basic_string<char>::_Alloc_hider", i64, %union.anon.0 }
%"struct.std::__cxx11::basic_string<char>::_Alloc_hider" = type { ptr }
%union.anon.0 = type { i64, [8 x i8] }

@_ZTIN5faiss14FaissExceptionE = external constant ptr
@_ZTISt9exception = external constant ptr
@.str = private unnamed_addr constant [14 x i8] c"Unknown error\00", align 1
@faiss_last_exception = external thread_local global %"class.std::__exception_ptr::exception_ptr", align 8
@_ZTVSt9exception = available_externally unnamed_addr constant { [5 x ptr] } { [5 x ptr] [ptr null, ptr @_ZTISt9exception, ptr @_ZNSt9exceptionD1Ev, ptr @_ZNSt9exceptionD0Ev, ptr @_ZNKSt9exception4whatEv] }, align 8

; Function Attrs: inlinehint mustprogress nounwind uwtable
define linkonce_odr void @_ZNSt15__exception_ptr13exception_ptr4swapERS0_(ptr noundef nonnull align 8 dereferenceable(8) %0, ptr noundef nonnull align 8 dereferenceable(8) %1) #9 comdat align 2 {
  %3 = alloca ptr, align 8
  %4 = alloca ptr, align 8
  %5 = alloca ptr, align 8
  store ptr %0, ptr %3, align 8, !tbaa !30
  store ptr %1, ptr %4, align 8, !tbaa !30
  %6 = load ptr, ptr %3, align 8
  call void @llvm.lifetime.start.p0(i64 8, ptr %5) #3
  %7 = getelementptr inbounds nuw %"class.std::__exception_ptr::exception_ptr", ptr %6, i32 0, i32 0
  %8 = load ptr, ptr %7, align 8, !tbaa !32
  store ptr %8, ptr %5, align 8, !tbaa !29
  %9 = load ptr, ptr %4, align 8, !tbaa !30
  %10 = getelementptr inbounds nuw %"class.std::__exception_ptr::exception_ptr", ptr %9, i32 0, i32 0
  %11 = load ptr, ptr %10, align 8, !tbaa !32
  %12 = getelementptr inbounds nuw %"class.std::__exception_ptr::exception_ptr", ptr %6, i32 0, i32 0
  store ptr %11, ptr %12, align 8, !tbaa !32
  %13 = load ptr, ptr %5, align 8, !tbaa !29
  %14 = load ptr, ptr %4, align 8, !tbaa !30
  %15 = getelementptr inbounds nuw %"class.std::__exception_ptr::exception_ptr", ptr %14, i32 0, i32 0
  store ptr %13, ptr %15, align 8, !tbaa !32
  call void @llvm.lifetime.end.p0(i64 8, ptr %5) #3
  ret void
}

; Function Attrs: mustprogress nounwind uwtable
define linkonce_odr void @_ZNSt15__exception_ptr13exception_ptrC2EOS0_(ptr noundef nonnull align 8 dereferenceable(8) %0, ptr noundef nonnull align 8 dereferenceable(8) %1) unnamed_addr #4 comdat align 2 {
  %3 = alloca ptr, align 8
  %4 = alloca ptr, align 8
  store ptr %0, ptr %3, align 8, !tbaa !30
  store ptr %1, ptr %4, align 8, !tbaa !30
  %5 = load ptr, ptr %3, align 8
  %6 = getelementptr inbounds nuw %"class.std::__exception_ptr::exception_ptr", ptr %5, i32 0, i32 0
  %7 = load ptr, ptr %4, align 8, !tbaa !30
  %8 = getelementptr inbounds nuw %"class.std::__exception_ptr::exception_ptr", ptr %7, i32 0, i32 0
  %9 = load ptr, ptr %8, align 8, !tbaa !32
  store ptr %9, ptr %6, align 8, !tbaa !32
  %10 = load ptr, ptr %4, align 8, !tbaa !30
  %11 = getelementptr inbounds nuw %"class.std::__exception_ptr::exception_ptr", ptr %10, i32 0, i32 0
  store ptr null, ptr %11, align 8, !tbaa !32
  ret void
}

; Function Attrs: mustprogress nounwind uwtable
define linkonce_odr void @_ZNSt9exceptionC2ERKS_(ptr noundef nonnull align 8 dereferenceable(8) %0, ptr noundef nonnull align 8 dereferenceable(8) %1) unnamed_addr #4 comdat align 2 {
  %3 = alloca ptr, align 8
  %4 = alloca ptr, align 8
  store ptr %0, ptr %3, align 8, !tbaa !16
  store ptr %1, ptr %4, align 8, !tbaa !16
  %5 = load ptr, ptr %3, align 8
  store ptr getelementptr inbounds inrange(-16, 24) ({ [5 x ptr] }, ptr @_ZTVSt9exception, i32 0, i32 0, i32 2), ptr %5, align 8, !tbaa !8
  ret void
}

; Function Attrs: inlinehint mustprogress nounwind uwtable
define linkonce_odr void @_ZNSt15__exception_ptr13exception_ptrD2Ev(ptr noundef nonnull align 8 dereferenceable(8) %0) unnamed_addr #9 comdat align 2 {
  %2 = alloca ptr, align 8
  store ptr %0, ptr %2, align 8, !tbaa !30
  %3 = load ptr, ptr %2, align 8
  %4 = getelementptr inbounds nuw %"class.std::__exception_ptr::exception_ptr", ptr %3, i32 0, i32 0
  %5 = load ptr, ptr %4, align 8, !tbaa !32
  %6 = icmp ne ptr %5, null
  br i1 %6, label %7, label %8

7:                                                ; preds = %1
  call void @_ZNSt15__exception_ptr13exception_ptr10_M_releaseEv(ptr noundef nonnull align 8 dereferenceable(8) %3) #3
  br label %8

8:                                                ; preds = %7, %1
  ret void
}

; Function Attrs: mustprogress nounwind uwtable
define linkonce_odr noundef nonnull align 8 dereferenceable(8) ptr @_ZNSt15__exception_ptr13exception_ptraSEOS0_(ptr noundef nonnull align 8 dereferenceable(8) %0, ptr noundef nonnull align 8 dereferenceable(8) %1) #4 comdat align 2 {
  %3 = alloca ptr, align 8
  %4 = alloca ptr, align 8
  %5 = alloca %"class.std::__exception_ptr::exception_ptr", align 8
  store ptr %0, ptr %3, align 8, !tbaa !30
  store ptr %1, ptr %4, align 8, !tbaa !30
  %6 = load ptr, ptr %3, align 8
  call void @llvm.lifetime.start.p0(i64 8, ptr %5) #3
  %7 = load ptr, ptr %4, align 8, !tbaa !30
  call void @_ZNSt15__exception_ptr13exception_ptrC2EOS0_(ptr noundef nonnull align 8 dereferenceable(8) %5, ptr noundef nonnull align 8 dereferenceable(8) %7) #3
  call void @_ZNSt15__exception_ptr13exception_ptr4swapERS0_(ptr noundef nonnull align 8 dereferenceable(8) %5, ptr noundef nonnull align 8 dereferenceable(8) %6) #3
  call void @_ZNSt15__exception_ptr13exception_ptrD2Ev(ptr noundef nonnull align 8 dereferenceable(8) %5) #3
  call void @llvm.lifetime.end.p0(i64 8, ptr %5) #3
  ret ptr %6
}

; Function Attrs: uwtable
define linkonce_odr hidden noundef ptr @_ZTW20faiss_last_exception() #11 comdat {
  %1 = icmp ne ptr @_ZTH20faiss_last_exception, null
  br i1 %1, label %2, label %3

2:                                                ; preds = %0
  call void @_ZTH20faiss_last_exception()
  br label %3

3:                                                ; preds = %2, %0
  %4 = call align 8 ptr @llvm.threadlocal.address.p0(ptr align 8 @faiss_last_exception)
  ret ptr %4
}

; Function Attrs: mustprogress uwtable
define i32 @faiss_IndexIVF_search_preassigned(ptr noundef %0, i64 noundef %1, ptr noundef %2, i64 noundef %3, ptr noundef %4, ptr noundef %5, ptr noundef %6, ptr noundef %7, i32 noundef %8) #6 personality ptr @__gxx_personality_v0 {
  %10 = alloca i32, align 4
  %11 = alloca ptr, align 8
  %12 = alloca i64, align 8
  %13 = alloca ptr, align 8
  %14 = alloca i64, align 8
  %15 = alloca ptr, align 8
  %16 = alloca ptr, align 8
  %17 = alloca ptr, align 8
  %18 = alloca ptr, align 8
  %19 = alloca i32, align 4
  %20 = alloca ptr, align 8
  %21 = alloca i32, align 4
  %22 = alloca %"class.std::__exception_ptr::exception_ptr", align 8
  %23 = alloca %"class.std::runtime_error", align 8
  %24 = alloca ptr, align 8
  %25 = alloca %"class.std::__exception_ptr::exception_ptr", align 8
  %26 = alloca %"class.std::exception", align 8
  %27 = alloca ptr, align 8
  %28 = alloca %"class.std::__exception_ptr::exception_ptr", align 8
  %29 = alloca %"class.faiss::FaissException", align 8
  store ptr %0, ptr %11, align 8, !tbaa !38
  store i64 %1, ptr %12, align 8, !tbaa !36
  store ptr %2, ptr %13, align 8, !tbaa !54
  store i64 %3, ptr %14, align 8, !tbaa !36
  store ptr %4, ptr %15, align 8, !tbaa !56
  store ptr %5, ptr %16, align 8, !tbaa !54
  store ptr %6, ptr %17, align 8, !tbaa !54
  store ptr %7, ptr %18, align 8, !tbaa !56
  store i32 %8, ptr %19, align 4, !tbaa !53
  %30 = load ptr, ptr %11, align 8, !tbaa !38
  %31 = load i64, ptr %12, align 8, !tbaa !36
  %32 = load ptr, ptr %13, align 8, !tbaa !54
  %33 = load i64, ptr %14, align 8, !tbaa !36
  %34 = load ptr, ptr %15, align 8, !tbaa !56
  %35 = load ptr, ptr %16, align 8, !tbaa !54
  %36 = load ptr, ptr %17, align 8, !tbaa !54
  %37 = load ptr, ptr %18, align 8, !tbaa !56
  %38 = load i32, ptr %19, align 4, !tbaa !53
  %39 = icmp ne i32 %38, 0
  %40 = load ptr, ptr %30, align 8, !tbaa !8
  %41 = getelementptr inbounds ptr, ptr %40, i64 27
  %42 = load ptr, ptr %41, align 8
  invoke void %42(ptr noundef nonnull align 8 dereferenceable(265) %30, i64 noundef %31, ptr noundef %32, i64 noundef %33, ptr noundef %34, ptr noundef %35, ptr noundef %36, ptr noundef %37, i1 noundef zeroext %39, ptr noundef null, ptr noundef null)
          to label %43 unwind label %44

43:                                               ; preds = %9
  br label %84

44:                                               ; preds = %9
  %45 = landingpad { ptr, i32 }
          catch ptr @_ZTIN5faiss14FaissExceptionE
          catch ptr @_ZTISt9exception
          catch ptr null
  %46 = extractvalue { ptr, i32 } %45, 0
  store ptr %46, ptr %20, align 8
  %47 = extractvalue { ptr, i32 } %45, 1
  store i32 %47, ptr %21, align 4
  br label %48

48:                                               ; preds = %44
  %49 = load i32, ptr %21, align 4
  %50 = call i32 @llvm.eh.typeid.for.p0(ptr @_ZTIN5faiss14FaissExceptionE) #3
  %51 = icmp eq i32 %49, %50
  br i1 %51, label %52, label %59

52:                                               ; preds = %48
  call void @llvm.lifetime.start.p0(i64 8, ptr %27) #3
  %53 = load ptr, ptr %20, align 8
  %54 = call ptr @__cxa_begin_catch(ptr %53) #3
  store ptr %54, ptr %27, align 8
  call void @llvm.lifetime.start.p0(i64 8, ptr %28) #3
  %55 = load ptr, ptr %27, align 8, !tbaa !14
  invoke void @_ZN5faiss14FaissExceptionC2ERKS0_(ptr noundef nonnull align 8 dereferenceable(40) %29, ptr noundef nonnull align 8 dereferenceable(40) %55)
          to label %56 unwind label %79

56:                                               ; preds = %52
  call void @_ZSt18make_exception_ptrIN5faiss14FaissExceptionEENSt15__exception_ptr13exception_ptrET_(ptr dead_on_unwind writable sret(%"class.std::__exception_ptr::exception_ptr") align 8 %28, ptr noundef %29) #3
  %57 = call ptr @_ZTW20faiss_last_exception()
  %58 = call noundef nonnull align 8 dereferenceable(8) ptr @_ZNSt15__exception_ptr13exception_ptraSEOS0_(ptr noundef nonnull align 8 dereferenceable(8) %57, ptr noundef nonnull align 8 dereferenceable(8) %28) #3
  call void @_ZNSt15__exception_ptr13exception_ptrD2Ev(ptr noundef nonnull align 8 dereferenceable(8) %28) #3
  call void @_ZN5faiss14FaissExceptionD2Ev(ptr noundef nonnull align 8 dereferenceable(40) %29) #3
  call void @llvm.lifetime.end.p0(i64 8, ptr %28) #3
  store i32 -2, ptr %10, align 4
  call void @__cxa_end_catch()
  call void @llvm.lifetime.end.p0(i64 8, ptr %27) #3
  br label %85

59:                                               ; preds = %48
  %60 = call i32 @llvm.eh.typeid.for.p0(ptr @_ZTISt9exception) #3
  %61 = icmp eq i32 %49, %60
  br i1 %61, label %62, label %68

62:                                               ; preds = %59
  call void @llvm.lifetime.start.p0(i64 8, ptr %24) #3
  %63 = load ptr, ptr %20, align 8
  %64 = call ptr @__cxa_begin_catch(ptr %63) #3
  store ptr %64, ptr %24, align 8
  call void @llvm.lifetime.start.p0(i64 8, ptr %25) #3
  %65 = load ptr, ptr %24, align 8, !tbaa !16
  call void @_ZNSt9exceptionC2ERKS_(ptr noundef nonnull align 8 dereferenceable(8) %26, ptr noundef nonnull align 8 dereferenceable(8) %65) #3
  call void @_ZSt18make_exception_ptrISt9exceptionENSt15__exception_ptr13exception_ptrET_(ptr dead_on_unwind writable sret(%"class.std::__exception_ptr::exception_ptr") align 8 %25, ptr noundef %26) #3
  %66 = call ptr @_ZTW20faiss_last_exception()
  %67 = call noundef nonnull align 8 dereferenceable(8) ptr @_ZNSt15__exception_ptr13exception_ptraSEOS0_(ptr noundef nonnull align 8 dereferenceable(8) %66, ptr noundef nonnull align 8 dereferenceable(8) %25) #3
  call void @_ZNSt15__exception_ptr13exception_ptrD2Ev(ptr noundef nonnull align 8 dereferenceable(8) %25) #3
  call void @_ZNSt9exceptionD1Ev(ptr noundef nonnull align 8 dereferenceable(8) %26) #3
  call void @llvm.lifetime.end.p0(i64 8, ptr %25) #3
  store i32 -4, ptr %10, align 4
  call void @__cxa_end_catch()
  call void @llvm.lifetime.end.p0(i64 8, ptr %24) #3
  br label %85

68:                                               ; preds = %59
  %69 = load ptr, ptr %20, align 8
  %70 = call ptr @__cxa_begin_catch(ptr %69) #3
  call void @llvm.lifetime.start.p0(i64 8, ptr %22) #3
  invoke void @_ZNSt13runtime_errorC1EPKc(ptr noundef nonnull align 8 dereferenceable(16) %23, ptr noundef @.str)
          to label %71 unwind label %74

71:                                               ; preds = %68
  call void @_ZSt18make_exception_ptrISt13runtime_errorENSt15__exception_ptr13exception_ptrET_(ptr dead_on_unwind writable sret(%"class.std::__exception_ptr::exception_ptr") align 8 %22, ptr noundef %23) #3
  %72 = call ptr @_ZTW20faiss_last_exception()
  %73 = call noundef nonnull align 8 dereferenceable(8) ptr @_ZNSt15__exception_ptr13exception_ptraSEOS0_(ptr noundef nonnull align 8 dereferenceable(8) %72, ptr noundef nonnull align 8 dereferenceable(8) %22) #3
  call void @_ZNSt15__exception_ptr13exception_ptrD2Ev(ptr noundef nonnull align 8 dereferenceable(8) %22) #3
  call void @_ZNSt13runtime_errorD1Ev(ptr noundef nonnull align 8 dereferenceable(16) %23) #3
  call void @llvm.lifetime.end.p0(i64 8, ptr %22) #3
  store i32 -1, ptr %10, align 4
  call void @__cxa_end_catch()
  br label %85

74:                                               ; preds = %68
  %75 = landingpad { ptr, i32 }
          cleanup
  %76 = extractvalue { ptr, i32 } %75, 0
  store ptr %76, ptr %20, align 8
  %77 = extractvalue { ptr, i32 } %75, 1
  store i32 %77, ptr %21, align 4
  call void @llvm.lifetime.end.p0(i64 8, ptr %22) #3
  invoke void @__cxa_end_catch()
          to label %78 unwind label %92

78:                                               ; preds = %74
  br label %87

79:                                               ; preds = %52
  %80 = landingpad { ptr, i32 }
          cleanup
  %81 = extractvalue { ptr, i32 } %80, 0
  store ptr %81, ptr %20, align 8
  %82 = extractvalue { ptr, i32 } %80, 1
  store i32 %82, ptr %21, align 4
  call void @llvm.lifetime.end.p0(i64 8, ptr %28) #3
  invoke void @__cxa_end_catch()
          to label %83 unwind label %92

83:                                               ; preds = %79
  call void @llvm.lifetime.end.p0(i64 8, ptr %27) #3
  br label %87

84:                                               ; preds = %43
  store i32 0, ptr %10, align 4
  br label %85

85:                                               ; preds = %84, %56, %62, %71
  %86 = load i32, ptr %10, align 4
  ret i32 %86

87:                                               ; preds = %83, %78
  %88 = load ptr, ptr %20, align 8
  %89 = load i32, ptr %21, align 4
  %90 = insertvalue { ptr, i32 } poison, ptr %88, 0
  %91 = insertvalue { ptr, i32 } %90, i32 %89, 1
  resume { ptr, i32 } %91

92:                                               ; preds = %79, %74
  %93 = landingpad { ptr, i32 }
          catch ptr null
  %94 = extractvalue { ptr, i32 } %93, 0
  call void @__clang_call_terminate(ptr %94) #19
  unreachable
}