; Function Attrs: uwtable
define range(i32 -4, 1) i32 @faiss_IndexIVF_search_preassigned(ptr noundef %0, i64 noundef %1, ptr noundef %2, i64 noundef %3, ptr noundef %4, ptr noundef %5, ptr noundef %6, ptr noundef %7, i32 noundef %8) local_unnamed_addr #6 personality ptr @__gxx_personality_v0 {
  %10 = alloca %"class.std::__exception_ptr::exception_ptr", align 8
  %11 = alloca %"class.std::__exception_ptr::exception_ptr", align 8
  %12 = alloca %"class.std::__exception_ptr::exception_ptr", align 8
  %13 = alloca %"class.std::__exception_ptr::exception_ptr", align 8
  %14 = alloca %"class.std::runtime_error", align 8
  %15 = alloca %"class.std::__exception_ptr::exception_ptr", align 8
  %16 = alloca %"class.std::exception", align 8
  %17 = alloca %"class.std::__exception_ptr::exception_ptr", align 8
  %18 = alloca %"class.faiss::FaissException", align 8
  %19 = icmp ne i32 %8, 0
  %20 = load ptr, ptr %0, align 8, !tbaa !3
  %21 = getelementptr inbounds nuw i8, ptr %20, i64 216
  %22 = load ptr, ptr %21, align 8
  invoke void %22(ptr noundef nonnull align 8 dereferenceable(265) %0, i64 noundef %1, ptr noundef %2, i64 noundef %3, ptr noundef %4, ptr noundef %5, ptr noundef %6, ptr noundef %7, i1 noundef zeroext %19, ptr noundef null, ptr noundef null)
          to label %58 unwind label %23

23:                                               ; preds = %9
  %24 = landingpad { ptr, i32 }
          catch ptr @_ZTIN5faiss14FaissExceptionE
          catch ptr @_ZTISt9exception
          catch ptr null
  %25 = extractvalue { ptr, i32 } %24, 0
  %26 = extractvalue { ptr, i32 } %24, 1
  %27 = tail call i32 @llvm.eh.typeid.for.p0(ptr nonnull @_ZTIN5faiss14FaissExceptionE) #24
  %28 = icmp eq i32 %26, %27
  br i1 %28, label %29, label %37

29:                                               ; preds = %23
  %30 = tail call ptr @__cxa_begin_catch(ptr %25) #24
  call void @llvm.lifetime.start.p0(i64 8, ptr nonnull %17) #24
  invoke void @_ZN5faiss14FaissExceptionC2ERKS0_(ptr noundef nonnull align 8 dereferenceable(40) %18, ptr noundef nonnull align 8 dereferenceable(40) %30)
          to label %31 unwind label %56

31:                                               ; preds = %29
  call void @_ZSt18make_exception_ptrIN5faiss14FaissExceptionEENSt15__exception_ptr13exception_ptrET_(ptr dead_on_unwind nonnull writable sret(%"class.std::__exception_ptr::exception_ptr") align 8 %17, ptr noundef nonnull %18) #24
  %.not.i = icmp eq ptr @_ZTH20faiss_last_exception, null
  br i1 %.not.i, label %_ZTW20faiss_last_exception.exit, label %32

32:                                               ; preds = %31
  call void @_ZTH20faiss_last_exception()
  br label %_ZTW20faiss_last_exception.exit

_ZTW20faiss_last_exception.exit:                  ; preds = %31, %32
  %33 = call noundef align 8 ptr @llvm.threadlocal.address.p0(ptr align 8 @faiss_last_exception)
  call void @llvm.lifetime.start.p0(i64 8, ptr nonnull %12) #24
  %34 = load ptr, ptr %17, align 8, !tbaa !17
  store ptr null, ptr %17, align 8, !tbaa !17
  %35 = load ptr, ptr %33, align 8, !tbaa !17
  store ptr %35, ptr %12, align 8, !tbaa !17
  store ptr %34, ptr %33, align 8, !tbaa !17
  %.not.i.i = icmp eq ptr %35, null
  br i1 %.not.i.i, label %_ZNSt15__exception_ptr13exception_ptraSEOS0_.exit.thread, label %_ZNSt15__exception_ptr13exception_ptraSEOS0_.exit

_ZNSt15__exception_ptr13exception_ptraSEOS0_.exit.thread: ; preds = %_ZTW20faiss_last_exception.exit
  call void @llvm.lifetime.end.p0(i64 8, ptr nonnull %12) #24
  br label %_ZNSt15__exception_ptr13exception_ptrD2Ev.exit

_ZNSt15__exception_ptr13exception_ptraSEOS0_.exit: ; preds = %_ZTW20faiss_last_exception.exit
  call void @_ZNSt15__exception_ptr13exception_ptr10_M_releaseEv(ptr noundef nonnull align 8 dereferenceable(8) %12) #24
  %.pr = load ptr, ptr %17, align 8, !tbaa !17
  call void @llvm.lifetime.end.p0(i64 8, ptr nonnull %12) #24
  %.not.i21 = icmp eq ptr %.pr, null
  br i1 %.not.i21, label %_ZNSt15__exception_ptr13exception_ptrD2Ev.exit, label %36

36:                                               ; preds = %_ZNSt15__exception_ptr13exception_ptraSEOS0_.exit
  call void @_ZNSt15__exception_ptr13exception_ptr10_M_releaseEv(ptr noundef nonnull align 8 dereferenceable(8) %17) #24
  br label %_ZNSt15__exception_ptr13exception_ptrD2Ev.exit

_ZNSt15__exception_ptr13exception_ptrD2Ev.exit:   ; preds = %_ZNSt15__exception_ptr13exception_ptraSEOS0_.exit.thread, %_ZNSt15__exception_ptr13exception_ptraSEOS0_.exit, %36
  call void @_ZN5faiss14FaissExceptionD2Ev(ptr noundef nonnull align 8 dereferenceable(40) %18) #24
  call void @llvm.lifetime.end.p0(i64 8, ptr nonnull %17) #24
  br label %.sink.split

37:                                               ; preds = %23
  %38 = tail call i32 @llvm.eh.typeid.for.p0(ptr nonnull @_ZTISt9exception) #24
  %39 = icmp eq i32 %26, %38
  %40 = tail call ptr @__cxa_begin_catch(ptr %25) #24
  br i1 %39, label %41, label %47

41:                                               ; preds = %37
  call void @llvm.lifetime.start.p0(i64 8, ptr nonnull %15) #24
  store ptr getelementptr inbounds nuw inrange(-16, 24) (i8, ptr @_ZTVSt9exception, i64 16), ptr %16, align 8, !tbaa !3
  call void @_ZSt18make_exception_ptrISt9exceptionENSt15__exception_ptr13exception_ptrET_(ptr dead_on_unwind nonnull writable sret(%"class.std::__exception_ptr::exception_ptr") align 8 %15, ptr noundef nonnull %16) #24
  %.not.i22 = icmp eq ptr @_ZTH20faiss_last_exception, null
  br i1 %.not.i22, label %_ZTW20faiss_last_exception.exit23, label %42

42:                                               ; preds = %41
  call void @_ZTH20faiss_last_exception()
  br label %_ZTW20faiss_last_exception.exit23

_ZTW20faiss_last_exception.exit23:                ; preds = %41, %42
  %43 = call noundef align 8 ptr @llvm.threadlocal.address.p0(ptr align 8 @faiss_last_exception)
  call void @llvm.lifetime.start.p0(i64 8, ptr nonnull %11) #24
  %44 = load ptr, ptr %15, align 8, !tbaa !17
  store ptr null, ptr %15, align 8, !tbaa !17
  %45 = load ptr, ptr %43, align 8, !tbaa !17
  store ptr %45, ptr %11, align 8, !tbaa !17
  store ptr %44, ptr %43, align 8, !tbaa !17
  %.not.i.i24 = icmp eq ptr %45, null
  br i1 %.not.i.i24, label %_ZNSt15__exception_ptr13exception_ptraSEOS0_.exit25.thread, label %_ZNSt15__exception_ptr13exception_ptraSEOS0_.exit25

_ZNSt15__exception_ptr13exception_ptraSEOS0_.exit25.thread: ; preds = %_ZTW20faiss_last_exception.exit23
  call void @llvm.lifetime.end.p0(i64 8, ptr nonnull %11) #24
  br label %_ZNSt15__exception_ptr13exception_ptrD2Ev.exit27

_ZNSt15__exception_ptr13exception_ptraSEOS0_.exit25: ; preds = %_ZTW20faiss_last_exception.exit23
  call void @_ZNSt15__exception_ptr13exception_ptr10_M_releaseEv(ptr noundef nonnull align 8 dereferenceable(8) %11) #24
  %.pr35 = load ptr, ptr %15, align 8, !tbaa !17
  call void @llvm.lifetime.end.p0(i64 8, ptr nonnull %11) #24
  %.not.i26 = icmp eq ptr %.pr35, null
  br i1 %.not.i26, label %_ZNSt15__exception_ptr13exception_ptrD2Ev.exit27, label %46

46:                                               ; preds = %_ZNSt15__exception_ptr13exception_ptraSEOS0_.exit25
  call void @_ZNSt15__exception_ptr13exception_ptr10_M_releaseEv(ptr noundef nonnull align 8 dereferenceable(8) %15) #24
  br label %_ZNSt15__exception_ptr13exception_ptrD2Ev.exit27

_ZNSt15__exception_ptr13exception_ptrD2Ev.exit27: ; preds = %_ZNSt15__exception_ptr13exception_ptraSEOS0_.exit25.thread, %_ZNSt15__exception_ptr13exception_ptraSEOS0_.exit25, %46
  call void @_ZNSt9exceptionD1Ev(ptr noundef nonnull align 8 dereferenceable(8) %16) #24
  call void @llvm.lifetime.end.p0(i64 8, ptr nonnull %15) #24
  br label %.sink.split

47:                                               ; preds = %37
  call void @llvm.lifetime.start.p0(i64 8, ptr nonnull %13) #24
  invoke void @_ZNSt13runtime_errorC1EPKc(ptr noundef nonnull align 8 dereferenceable(16) %14, ptr noundef nonnull @.str)
          to label %48 unwind label %54

48:                                               ; preds = %47
  call void @_ZSt18make_exception_ptrISt13runtime_errorENSt15__exception_ptr13exception_ptrET_(ptr dead_on_unwind nonnull writable sret(%"class.std::__exception_ptr::exception_ptr") align 8 %13, ptr noundef nonnull %14) #24
  %.not.i28 = icmp eq ptr @_ZTH20faiss_last_exception, null
  br i1 %.not.i28, label %_ZTW20faiss_last_exception.exit29, label %49

49:                                               ; preds = %48
  call void @_ZTH20faiss_last_exception()
  br label %_ZTW20faiss_last_exception.exit29

_ZTW20faiss_last_exception.exit29:                ; preds = %48, %49
  %50 = call noundef align 8 ptr @llvm.threadlocal.address.p0(ptr align 8 @faiss_last_exception)
  call void @llvm.lifetime.start.p0(i64 8, ptr nonnull %10) #24
  %51 = load ptr, ptr %13, align 8, !tbaa !17
  store ptr null, ptr %13, align 8, !tbaa !17
  %52 = load ptr, ptr %50, align 8, !tbaa !17
  store ptr %52, ptr %10, align 8, !tbaa !17
  store ptr %51, ptr %50, align 8, !tbaa !17
  %.not.i.i30 = icmp eq ptr %52, null
  br i1 %.not.i.i30, label %_ZNSt15__exception_ptr13exception_ptraSEOS0_.exit31.thread, label %_ZNSt15__exception_ptr13exception_ptraSEOS0_.exit31

_ZNSt15__exception_ptr13exception_ptraSEOS0_.exit31.thread: ; preds = %_ZTW20faiss_last_exception.exit29
  call void @llvm.lifetime.end.p0(i64 8, ptr nonnull %10) #24
  br label %_ZNSt15__exception_ptr13exception_ptrD2Ev.exit33

_ZNSt15__exception_ptr13exception_ptraSEOS0_.exit31: ; preds = %_ZTW20faiss_last_exception.exit29
  call void @_ZNSt15__exception_ptr13exception_ptr10_M_releaseEv(ptr noundef nonnull align 8 dereferenceable(8) %10) #24
  %.pr37 = load ptr, ptr %13, align 8, !tbaa !17
  call void @llvm.lifetime.end.p0(i64 8, ptr nonnull %10) #24
  %.not.i32 = icmp eq ptr %.pr37, null
  br i1 %.not.i32, label %_ZNSt15__exception_ptr13exception_ptrD2Ev.exit33, label %53

53:                                               ; preds = %_ZNSt15__exception_ptr13exception_ptraSEOS0_.exit31
  call void @_ZNSt15__exception_ptr13exception_ptr10_M_releaseEv(ptr noundef nonnull align 8 dereferenceable(8) %13) #24
  br label %_ZNSt15__exception_ptr13exception_ptrD2Ev.exit33

_ZNSt15__exception_ptr13exception_ptrD2Ev.exit33: ; preds = %_ZNSt15__exception_ptr13exception_ptraSEOS0_.exit31.thread, %_ZNSt15__exception_ptr13exception_ptraSEOS0_.exit31, %53
  call void @_ZNSt13runtime_errorD1Ev(ptr noundef nonnull align 8 dereferenceable(16) %14) #24
  call void @llvm.lifetime.end.p0(i64 8, ptr nonnull %13) #24
  br label %.sink.split

54:                                               ; preds = %47
  %55 = landingpad { ptr, i32 }
          cleanup
  call void @llvm.lifetime.end.p0(i64 8, ptr nonnull %13) #24
  invoke void @__cxa_end_catch()
          to label %59 unwind label %60

56:                                               ; preds = %29
  %57 = landingpad { ptr, i32 }
          cleanup
  call void @llvm.lifetime.end.p0(i64 8, ptr nonnull %17) #24
  invoke void @__cxa_end_catch()
          to label %59 unwind label %60

.sink.split:                                      ; preds = %_ZNSt15__exception_ptr13exception_ptrD2Ev.exit, %_ZNSt15__exception_ptr13exception_ptrD2Ev.exit27, %_ZNSt15__exception_ptr13exception_ptrD2Ev.exit33
  %.0.ph = phi i32 [ -1, %_ZNSt15__exception_ptr13exception_ptrD2Ev.exit33 ], [ -4, %_ZNSt15__exception_ptr13exception_ptrD2Ev.exit27 ], [ -2, %_ZNSt15__exception_ptr13exception_ptrD2Ev.exit ]
  call void @__cxa_end_catch()
  br label %58

58:                                               ; preds = %.sink.split, %9
  %.0 = phi i32 [ 0, %9 ], [ %.0.ph, %.sink.split ]
  ret i32 %.0

59:                                               ; preds = %56, %54
  %.pn = phi { ptr, i32 } [ %55, %54 ], [ %57, %56 ]
  resume { ptr, i32 } %.pn

60:                                               ; preds = %56, %54
  %61 = landingpad { ptr, i32 }
          catch ptr null
  %62 = extractvalue { ptr, i32 } %61, 0
  call void @__clang_call_terminate(ptr %62) #26
  unreachable
}